target datalayout = "e-m:e-p270:32:32-p271:32:32-p272:64:64-i64:64-i128:128-f80:128-n8:16:32:64-S128"
target triple = "x86_64-pc-linux-gnu"

%struct.AVRational = type { i32, i32 }
%struct.AVFormatContext = type { ptr, ptr, ptr, ptr, ptr, i32, i32, ptr, i32, ptr, i32, ptr, ptr, i64, i64, i64, i32, i32, i32, i64, i64, ptr, i32, i32, ptr, i32, i32, i32, i32, ptr, i64, i32, i32, %struct.AVIOInterruptCB, i32, i32, i32, i32, i64, i32, i32, i32, i32, i32, i32, i32, i32, i32, i32, i32, i32, i64, i32, i32, i32, i32, i32, ptr, ptr, ptr, ptr, i32, ptr, ptr, ptr, ptr, i32, ptr, ptr, i64, ptr, ptr, ptr, i64 }
%struct.AVIOInterruptCB = type { ptr, ptr }
%struct.GXFContext = type { ptr, i32, i16, i16, i64, i32, i32, i32, i32, i16, i16, %struct.AVRational, i32, %struct.GXFStreamContext, ptr, i32, ptr, i32, i32, %struct.GXFTimecode }
%struct.GXFStreamContext = type { i64, i32, i32, i32, i16, i16, i32, i32, i32, i32, i32, i32, i32, i32, i32, i32 }
%struct.GXFTimecode = type { i32, i32, i32, i32, i32, i32 }
%struct.AVStream = type { ptr, i32, i32, ptr, ptr, %struct.AVRational, i64, i64, i64, i32, i32, %struct.AVRational, ptr, %struct.AVRational, %struct.AVPacket, i32, %struct.AVRational, i32 }
%struct.AVPacket = type { ptr, i64, i64, ptr, i32, i32, i32, ptr, i32, i64, i64, ptr, ptr, %struct.AVRational }

@.str.14 = private unnamed_addr constant [31 x i8] c"could not realloc map offsets\0A\00", align 1
@.str.15 = private unnamed_addr constant [18 x i8] c"EXT:/PDR/default/\00", align 1

; Function Attrs: nounwind uwtable
define internal i64 @update_size(ptr noundef %0, i64 noundef %1) #0 {
  %3 = alloca ptr, align 8
  %4 = alloca i64, align 8
  %5 = alloca i64, align 8
  store ptr %0, ptr %3, align 8, !tbaa !26
  store i64 %1, ptr %4, align 8, !tbaa !94
  call void @llvm.lifetime.start.p0(i64 8, ptr %5) #10
  %6 = load ptr, ptr %3, align 8, !tbaa !26
  %7 = call i64 @avio_tell(ptr noundef %6)
  store i64 %7, ptr %5, align 8, !tbaa !94
  %8 = load ptr, ptr %3, align 8, !tbaa !26
  %9 = load i64, ptr %4, align 8, !tbaa !94
  %10 = call i64 @avio_seek(ptr noundef %8, i64 noundef %9, i32 noundef 0)
  %11 = load ptr, ptr %3, align 8, !tbaa !26
  %12 = load i64, ptr %5, align 8, !tbaa !94
  %13 = load i64, ptr %4, align 8, !tbaa !94
  %14 = sub nsw i64 %12, %13
  %15 = sub nsw i64 %14, 2
  %16 = trunc i64 %15 to i32
  call void @avio_wb16(ptr noundef %11, i32 noundef %16)
  %17 = load ptr, ptr %3, align 8, !tbaa !26
  %18 = load i64, ptr %5, align 8, !tbaa !94
  %19 = call i64 @avio_seek(ptr noundef %17, i64 noundef %18, i32 noundef 0)
  %20 = load i64, ptr %5, align 8, !tbaa !94
  %21 = load i64, ptr %4, align 8, !tbaa !94
  %22 = sub nsw i64 %20, %21
  call void @llvm.lifetime.end.p0(i64 8, ptr %5) #10
  ret i64 %22
}

; Function Attrs: nounwind uwtable
define internal i32 @gxf_write_track_description_section(ptr noundef %0) #0 {
  %2 = alloca ptr, align 8
  %3 = alloca ptr, align 8
  %4 = alloca ptr, align 8
  %5 = alloca i64, align 8
  %6 = alloca i32, align 4
  store ptr %0, ptr %2, align 8, !tbaa !4
  call void @llvm.lifetime.start.p0(i64 8, ptr %3) #10
  %7 = load ptr, ptr %2, align 8, !tbaa !4
  %8 = getelementptr inbounds nuw %struct.AVFormatContext, ptr %7, i32 0, i32 3
  %9 = load ptr, ptr %8, align 8, !tbaa !27
  store ptr %9, ptr %3, align 8, !tbaa !28
  call void @llvm.lifetime.start.p0(i64 8, ptr %4) #10
  %10 = load ptr, ptr %2, align 8, !tbaa !4
  %11 = getelementptr inbounds nuw %struct.AVFormatContext, ptr %10, i32 0, i32 4
  %12 = load ptr, ptr %11, align 8, !tbaa !9
  store ptr %12, ptr %4, align 8, !tbaa !26
  call void @llvm.lifetime.start.p0(i64 8, ptr %5) #10
  call void @llvm.lifetime.start.p0(i64 4, ptr %6) #10
  %13 = load ptr, ptr %4, align 8, !tbaa !26
  %14 = call i64 @avio_tell(ptr noundef %13)
  store i64 %14, ptr %5, align 8, !tbaa !94
  %15 = load ptr, ptr %4, align 8, !tbaa !26
  call void @avio_wb16(ptr noundef %15, i32 noundef 0)
  store i32 0, ptr %6, align 4, !tbaa !32
  br label %16

16:                                               ; preds = %35, %1
  %17 = load i32, ptr %6, align 4, !tbaa !32
  %18 = load ptr, ptr %2, align 8, !tbaa !4
  %19 = getelementptr inbounds nuw %struct.AVFormatContext, ptr %18, i32 0, i32 6
  %20 = load i32, ptr %19, align 4, !tbaa !46
  %21 = icmp ult i32 %17, %20
  br i1 %21, label %22, label %38

22:                                               ; preds = %16
  %23 = load ptr, ptr %2, align 8, !tbaa !4
  %24 = load ptr, ptr %2, align 8, !tbaa !4
  %25 = getelementptr inbounds nuw %struct.AVFormatContext, ptr %24, i32 0, i32 7
  %26 = load ptr, ptr %25, align 8, !tbaa !47
  %27 = load i32, ptr %6, align 4, !tbaa !32
  %28 = sext i32 %27 to i64
  %29 = getelementptr inbounds ptr, ptr %26, i64 %28
  %30 = load ptr, ptr %29, align 8, !tbaa !48
  %31 = getelementptr inbounds nuw %struct.AVStream, ptr %30, i32 0, i32 4
  %32 = load ptr, ptr %31, align 8, !tbaa !50
  %33 = load i32, ptr %6, align 4, !tbaa !32
  %34 = call i32 @gxf_write_track_description(ptr noundef %23, ptr noundef %32, i32 noundef %33)
  br label %35

35:                                               ; preds = %22
  %36 = load i32, ptr %6, align 4, !tbaa !32
  %37 = add nsw i32 %36, 1
  store i32 %37, ptr %6, align 4, !tbaa !32
  br label %16, !llvm.loop !122

38:                                               ; preds = %16
  %39 = load ptr, ptr %2, align 8, !tbaa !4
  %40 = load ptr, ptr %3, align 8, !tbaa !28
  %41 = getelementptr inbounds nuw %struct.GXFContext, ptr %40, i32 0, i32 13
  %42 = load ptr, ptr %2, align 8, !tbaa !4
  %43 = getelementptr inbounds nuw %struct.AVFormatContext, ptr %42, i32 0, i32 6
  %44 = load i32, ptr %43, align 4, !tbaa !46
  %45 = call i32 @gxf_write_track_description(ptr noundef %39, ptr noundef %41, i32 noundef %44)
  %46 = load ptr, ptr %4, align 8, !tbaa !26
  %47 = load i64, ptr %5, align 8, !tbaa !94
  %48 = call i64 @update_size(ptr noundef %46, i64 noundef %47)
  %49 = trunc i64 %48 to i32
  call void @llvm.lifetime.end.p0(i64 4, ptr %6) #10
  call void @llvm.lifetime.end.p0(i64 8, ptr %5) #10
  call void @llvm.lifetime.end.p0(i64 8, ptr %4) #10
  call void @llvm.lifetime.end.p0(i64 8, ptr %3) #10
  ret i32 %49
}

; Function Attrs: nounwind uwtable
define internal i32 @gxf_write_material_data_section(ptr noundef %0) #0 {
  %2 = alloca ptr, align 8
  %3 = alloca ptr, align 8
  %4 = alloca ptr, align 8
  %5 = alloca i64, align 8
  %6 = alloca i32, align 4
  %7 = alloca ptr, align 8
  store ptr %0, ptr %2, align 8, !tbaa !4
  call void @llvm.lifetime.start.p0(i64 8, ptr %3) #10
  %8 = load ptr, ptr %2, align 8, !tbaa !4
  %9 = getelementptr inbounds nuw %struct.AVFormatContext, ptr %8, i32 0, i32 3
  %10 = load ptr, ptr %9, align 8, !tbaa !27
  store ptr %10, ptr %3, align 8, !tbaa !28
  call void @llvm.lifetime.start.p0(i64 8, ptr %4) #10
  %11 = load ptr, ptr %2, align 8, !tbaa !4
  %12 = getelementptr inbounds nuw %struct.AVFormatContext, ptr %11, i32 0, i32 4
  %13 = load ptr, ptr %12, align 8, !tbaa !9
  store ptr %13, ptr %4, align 8, !tbaa !26
  call void @llvm.lifetime.start.p0(i64 8, ptr %5) #10
  call void @llvm.lifetime.start.p0(i64 4, ptr %6) #10
  call void @llvm.lifetime.start.p0(i64 8, ptr %7) #10
  %14 = load ptr, ptr %2, align 8, !tbaa !4
  %15 = getelementptr inbounds nuw %struct.AVFormatContext, ptr %14, i32 0, i32 12
  %16 = load ptr, ptr %15, align 8, !tbaa !121
  %17 = call ptr @strrchr(ptr noundef %16, i32 noundef 47) #11
  store ptr %17, ptr %7, align 8, !tbaa !112
  %18 = load ptr, ptr %4, align 8, !tbaa !26
  %19 = call i64 @avio_tell(ptr noundef %18)
  store i64 %19, ptr %5, align 8, !tbaa !94
  %20 = load ptr, ptr %4, align 8, !tbaa !26
  call void @avio_wb16(ptr noundef %20, i32 noundef 0)
  %21 = load ptr, ptr %7, align 8, !tbaa !112
  %22 = icmp ne ptr %21, null
  br i1 %22, label %23, label %26

23:                                               ; preds = %1
  %24 = load ptr, ptr %7, align 8, !tbaa !112
  %25 = getelementptr inbounds nuw i8, ptr %24, i32 1
  store ptr %25, ptr %7, align 8, !tbaa !112
  br label %30

26:                                               ; preds = %1
  %27 = load ptr, ptr %2, align 8, !tbaa !4
  %28 = getelementptr inbounds nuw %struct.AVFormatContext, ptr %27, i32 0, i32 12
  %29 = load ptr, ptr %28, align 8, !tbaa !121
  store ptr %29, ptr %7, align 8, !tbaa !112
  br label %30

30:                                               ; preds = %26, %23
  %31 = load ptr, ptr %7, align 8, !tbaa !112
  %32 = call i64 @strlen(ptr noundef %31) #11
  %33 = trunc i64 %32 to i32
  store i32 %33, ptr %6, align 4, !tbaa !32
  %34 = load ptr, ptr %4, align 8, !tbaa !26
  call void @avio_w8(ptr noundef %34, i32 noundef 64)
  %35 = load ptr, ptr %4, align 8, !tbaa !26
  %36 = load i32, ptr %6, align 4, !tbaa !32
  %37 = sext i32 %36 to i64
  %38 = add i64 17, %37
  %39 = add i64 %38, 1
  %40 = trunc i64 %39 to i32
  call void @avio_w8(ptr noundef %35, i32 noundef %40)
  %41 = load ptr, ptr %4, align 8, !tbaa !26
  call void @avio_write(ptr noundef %41, ptr noundef @.str.15, i32 noundef 17)
  %42 = load ptr, ptr %4, align 8, !tbaa !26
  %43 = load ptr, ptr %7, align 8, !tbaa !112
  %44 = load i32, ptr %6, align 4, !tbaa !32
  call void @avio_write(ptr noundef %42, ptr noundef %43, i32 noundef %44)
  %45 = load ptr, ptr %4, align 8, !tbaa !26
  call void @avio_w8(ptr noundef %45, i32 noundef 0)
  %46 = load ptr, ptr %4, align 8, !tbaa !26
  call void @avio_w8(ptr noundef %46, i32 noundef 65)
  %47 = load ptr, ptr %4, align 8, !tbaa !26
  call void @avio_w8(ptr noundef %47, i32 noundef 4)
  %48 = load ptr, ptr %4, align 8, !tbaa !26
  call void @avio_wb32(ptr noundef %48, i32 noundef 0)
  %49 = load ptr, ptr %4, align 8, !tbaa !26
  call void @avio_w8(ptr noundef %49, i32 noundef 66)
  %50 = load ptr, ptr %4, align 8, !tbaa !26
  call void @avio_w8(ptr noundef %50, i32 noundef 4)
  %51 = load ptr, ptr %4, align 8, !tbaa !26
  %52 = load ptr, ptr %3, align 8, !tbaa !28
  %53 = getelementptr inbounds nuw %struct.GXFContext, ptr %52, i32 0, i32 1
  %54 = load i32, ptr %53, align 8, !tbaa !98
  call void @avio_wb32(ptr noundef %51, i32 noundef %54)
  %55 = load ptr, ptr %4, align 8, !tbaa !26
  call void @avio_w8(ptr noundef %55, i32 noundef 67)
  %56 = load ptr, ptr %4, align 8, !tbaa !26
  call void @avio_w8(ptr noundef %56, i32 noundef 4)
  %57 = load ptr, ptr %4, align 8, !tbaa !26
  call void @avio_wb32(ptr noundef %57, i32 noundef 0)
  %58 = load ptr, ptr %4, align 8, !tbaa !26
  call void @avio_w8(ptr noundef %58, i32 noundef 68)
  %59 = load ptr, ptr %4, align 8, !tbaa !26
  call void @avio_w8(ptr noundef %59, i32 noundef 4)
  %60 = load ptr, ptr %4, align 8, !tbaa !26
  %61 = load ptr, ptr %3, align 8, !tbaa !28
  %62 = getelementptr inbounds nuw %struct.GXFContext, ptr %61, i32 0, i32 1
  %63 = load i32, ptr %62, align 8, !tbaa !98
  call void @avio_wb32(ptr noundef %60, i32 noundef %63)
  %64 = load ptr, ptr %4, align 8, !tbaa !26
  call void @avio_w8(ptr noundef %64, i32 noundef 69)
  %65 = load ptr, ptr %4, align 8, !tbaa !26
  call void @avio_w8(ptr noundef %65, i32 noundef 4)
  %66 = load ptr, ptr %4, align 8, !tbaa !26
  %67 = load ptr, ptr %4, align 8, !tbaa !26
  %68 = call i64 @avio_size(ptr noundef %67)
  %69 = sdiv i64 %68, 1024
  %70 = trunc i64 %69 to i32
  call void @avio_wb32(ptr noundef %66, i32 noundef %70)
  %71 = load ptr, ptr %4, align 8, !tbaa !26
  %72 = load i64, ptr %5, align 8, !tbaa !94
  %73 = call i64 @update_size(ptr noundef %71, i64 noundef %72)
  %74 = trunc i64 %73 to i32
  call void @llvm.lifetime.end.p0(i64 8, ptr %7) #10
  call void @llvm.lifetime.end.p0(i64 4, ptr %6) #10
  call void @llvm.lifetime.end.p0(i64 8, ptr %5) #10
  call void @llvm.lifetime.end.p0(i64 8, ptr %4) #10
  call void @llvm.lifetime.end.p0(i64 8, ptr %3) #10
  ret i32 %74
}

; Function Attrs: nounwind uwtable
define internal void @gxf_write_packet_header(ptr noundef %0, i32 noundef %1) #0 {
  %3 = alloca ptr, align 8
  %4 = alloca i32, align 4
  store ptr %0, ptr %3, align 8, !tbaa !26
  store i32 %1, ptr %4, align 4, !tbaa !32
  %5 = load ptr, ptr %3, align 8, !tbaa !26
  call void @avio_wb32(ptr noundef %5, i32 noundef 0)
  %6 = load ptr, ptr %3, align 8, !tbaa !26
  call void @avio_w8(ptr noundef %6, i32 noundef 1)
  %7 = load ptr, ptr %3, align 8, !tbaa !26
  %8 = load i32, ptr %4, align 4, !tbaa !32
  call void @avio_w8(ptr noundef %7, i32 noundef %8)
  %9 = load ptr, ptr %3, align 8, !tbaa !26
  call void @avio_wb32(ptr noundef %9, i32 noundef 0)
  %10 = load ptr, ptr %3, align 8, !tbaa !26
  call void @avio_wb32(ptr noundef %10, i32 noundef 0)
  %11 = load ptr, ptr %3, align 8, !tbaa !26
  call void @avio_w8(ptr noundef %11, i32 noundef 225)
  %12 = load ptr, ptr %3, align 8, !tbaa !26
  call void @avio_w8(ptr noundef %12, i32 noundef 226)
  ret void
}

; Function Attrs: alwaysinline nounwind uwtable
define internal i64 @avio_tell(ptr noundef %0) #6 {
  %2 = alloca ptr, align 8
  store ptr %0, ptr %2, align 8, !tbaa !26
  %3 = load ptr, ptr %2, align 8, !tbaa !26
  %4 = call i64 @avio_seek(ptr noundef %3, i64 noundef 0, i32 noundef 1)
  ret i64 %4
}

; Function Attrs: nounwind uwtable
define internal i32 @gxf_write_map_packet(ptr noundef %0, i32 noundef %1) #0 {
  %3 = alloca i32, align 4
  %4 = alloca ptr, align 8
  %5 = alloca i32, align 4
  %6 = alloca ptr, align 8
  %7 = alloca ptr, align 8
  %8 = alloca i64, align 8
  %9 = alloca i32, align 4
  %10 = alloca i32, align 4
  store ptr %0, ptr %4, align 8, !tbaa !4
  store i32 %1, ptr %5, align 4, !tbaa !32
  call void @llvm.lifetime.start.p0(i64 8, ptr %6) #10
  %11 = load ptr, ptr %4, align 8, !tbaa !4
  %12 = getelementptr inbounds nuw %struct.AVFormatContext, ptr %11, i32 0, i32 3
  %13 = load ptr, ptr %12, align 8, !tbaa !27
  store ptr %13, ptr %6, align 8, !tbaa !28
  call void @llvm.lifetime.start.p0(i64 8, ptr %7) #10
  %14 = load ptr, ptr %4, align 8, !tbaa !4
  %15 = getelementptr inbounds nuw %struct.AVFormatContext, ptr %14, i32 0, i32 4
  %16 = load ptr, ptr %15, align 8, !tbaa !9
  store ptr %16, ptr %7, align 8, !tbaa !26
  call void @llvm.lifetime.start.p0(i64 8, ptr %8) #10
  %17 = load ptr, ptr %7, align 8, !tbaa !26
  %18 = call i64 @avio_tell(ptr noundef %17)
  store i64 %18, ptr %8, align 8, !tbaa !94
  %19 = load i32, ptr %5, align 4, !tbaa !32
  %20 = icmp ne i32 %19, 0
  br i1 %20, label %57, label %21

21:                                               ; preds = %2
  %22 = load ptr, ptr %6, align 8, !tbaa !28
  %23 = getelementptr inbounds nuw %struct.GXFContext, ptr %22, i32 0, i32 17
  %24 = load i32, ptr %23, align 8, !tbaa !100
  %25 = urem i32 %24, 30
  %26 = icmp ne i32 %25, 0
  br i1 %26, label %46, label %27

27:                                               ; preds = %21
  call void @llvm.lifetime.start.p0(i64 4, ptr %9) #10
  %28 = load ptr, ptr %6, align 8, !tbaa !28
  %29 = getelementptr inbounds nuw %struct.GXFContext, ptr %28, i32 0, i32 16
  %30 = load ptr, ptr %6, align 8, !tbaa !28
  %31 = getelementptr inbounds nuw %struct.GXFContext, ptr %30, i32 0, i32 17
  %32 = load i32, ptr %31, align 8, !tbaa !100
  %33 = add i32 %32, 30
  %34 = zext i32 %33 to i64
  %35 = call i32 @av_reallocp_array(ptr noundef %29, i64 noundef %34, i64 noundef 8)
  store i32 %35, ptr %9, align 4, !tbaa !32
  %36 = icmp slt i32 %35, 0
  br i1 %36, label %37, label %42

37:                                               ; preds = %27
  %38 = load ptr, ptr %6, align 8, !tbaa !28
  %39 = getelementptr inbounds nuw %struct.GXFContext, ptr %38, i32 0, i32 17
  store i32 0, ptr %39, align 8, !tbaa !100
  %40 = load ptr, ptr %4, align 8, !tbaa !4
  call void (ptr, i32, ptr, ...) @av_log(ptr noundef %40, i32 noundef 16, ptr noundef @.str.14)
  %41 = load i32, ptr %9, align 4, !tbaa !32
  store i32 %41, ptr %3, align 4
  store i32 1, ptr %10, align 4
  br label %43

42:                                               ; preds = %27
  store i32 0, ptr %10, align 4
  br label %43

43:                                               ; preds = %42, %37
  call void @llvm.lifetime.end.p0(i64 4, ptr %9) #10
  %44 = load i32, ptr %10, align 4
  switch i32 %44, label %69 [
    i32 0, label %45
  ]

45:                                               ; preds = %43
  br label %46

46:                                               ; preds = %45, %21
  %47 = load i64, ptr %8, align 8, !tbaa !94
  %48 = load ptr, ptr %6, align 8, !tbaa !28
  %49 = getelementptr inbounds nuw %struct.GXFContext, ptr %48, i32 0, i32 16
  %50 = load ptr, ptr %49, align 8, !tbaa !101
  %51 = load ptr, ptr %6, align 8, !tbaa !28
  %52 = getelementptr inbounds nuw %struct.GXFContext, ptr %51, i32 0, i32 17
  %53 = load i32, ptr %52, align 8, !tbaa !100
  %54 = add i32 %53, 1
  store i32 %54, ptr %52, align 8, !tbaa !100
  %55 = zext i32 %53 to i64
  %56 = getelementptr inbounds nuw i64, ptr %50, i64 %55
  store i64 %47, ptr %56, align 8, !tbaa !94
  br label %57

57:                                               ; preds = %46, %2
  %58 = load ptr, ptr %7, align 8, !tbaa !26
  call void @gxf_write_packet_header(ptr noundef %58, i32 noundef 188)
  %59 = load ptr, ptr %7, align 8, !tbaa !26
  call void @avio_w8(ptr noundef %59, i32 noundef 224)
  %60 = load ptr, ptr %7, align 8, !tbaa !26
  call void @avio_w8(ptr noundef %60, i32 noundef 255)
  %61 = load ptr, ptr %4, align 8, !tbaa !4
  %62 = call i32 @gxf_write_material_data_section(ptr noundef %61)
  %63 = load ptr, ptr %4, align 8, !tbaa !4
  %64 = call i32 @gxf_write_track_description_section(ptr noundef %63)
  %65 = load ptr, ptr %7, align 8, !tbaa !26
  %66 = load i64, ptr %8, align 8, !tbaa !94
  %67 = call i64 @update_packet_size(ptr noundef %65, i64 noundef %66)
  %68 = trunc i64 %67 to i32
  store i32 %68, ptr %3, align 4
  store i32 1, ptr %10, align 4
  br label %69

69:                                               ; preds = %57, %43
  call void @llvm.lifetime.end.p0(i64 8, ptr %8) #10
  call void @llvm.lifetime.end.p0(i64 8, ptr %7) #10
  call void @llvm.lifetime.end.p0(i64 8, ptr %6) #10
  %70 = load i32, ptr %3, align 4
  ret i32 %70
}