; Function Attrs: nounwind uwtable
define internal fastcc i32 @gxf_write_map_packet(ptr noundef %0, i32 noundef range(i32 0, 2) %1) unnamed_addr #0 {
  %3 = getelementptr inbounds nuw i8, ptr %0, i64 24
  %4 = load ptr, ptr %3, align 8, !tbaa !24
  %5 = getelementptr inbounds nuw i8, ptr %0, i64 32
  %6 = load ptr, ptr %5, align 8, !tbaa !4
  %7 = tail call i64 @avio_seek(ptr noundef %6, i64 noundef 0, i32 noundef 1) #10
  %.not = icmp eq i32 %1, 0
  br i1 %.not, label %8, label %25

8:                                                ; preds = %2
  %9 = getelementptr inbounds nuw i8, ptr %4, i64 144
  %10 = load i32, ptr %9, align 8, !tbaa !97
  %11 = urem i32 %10, 30
  %.not22 = icmp eq i32 %11, 0
  br i1 %.not22, label %12, label %.critedge

12:                                               ; preds = %8
  %13 = getelementptr inbounds nuw i8, ptr %4, i64 136
  %14 = add i32 %10, 30
  %15 = zext i32 %14 to i64
  %16 = tail call i32 @av_reallocp_array(ptr noundef nonnull %13, i64 noundef %15, i64 noundef 8) #10
  %17 = icmp sgt i32 %16, -1
  br i1 %17, label %..critedge_crit_edge, label %18

..critedge_crit_edge:                             ; preds = %12
  %.pre = load i32, ptr %9, align 8, !tbaa !97
  br label %.critedge

18:                                               ; preds = %12
  store i32 0, ptr %9, align 8, !tbaa !97
  tail call void (ptr, i32, ptr, ...) @av_log(ptr noundef nonnull %0, i32 noundef 16, ptr noundef nonnull @.str.14) #10
  br label %76

.critedge:                                        ; preds = %..critedge_crit_edge, %8
  %19 = phi i32 [ %.pre, %..critedge_crit_edge ], [ %10, %8 ]
  %20 = getelementptr inbounds nuw i8, ptr %4, i64 136
  %21 = load ptr, ptr %20, align 8, !tbaa !99
  %22 = add i32 %19, 1
  store i32 %22, ptr %9, align 8, !tbaa !97
  %23 = zext i32 %19 to i64
  %24 = getelementptr inbounds nuw i64, ptr %21, i64 %23
  store i64 %7, ptr %24, align 8, !tbaa !100
  br label %25

25:                                               ; preds = %.critedge, %2
  tail call void @avio_wb32(ptr noundef %6, i32 noundef 0) #10
  tail call void @avio_w8(ptr noundef %6, i32 noundef 1) #10
  tail call void @avio_w8(ptr noundef %6, i32 noundef 188) #10
  tail call void @avio_wb32(ptr noundef %6, i32 noundef 0) #10
  tail call void @avio_wb32(ptr noundef %6, i32 noundef 0) #10
  tail call void @avio_w8(ptr noundef %6, i32 noundef 225) #10
  tail call void @avio_w8(ptr noundef %6, i32 noundef 226) #10
  tail call void @avio_w8(ptr noundef %6, i32 noundef 224) #10
  tail call void @avio_w8(ptr noundef %6, i32 noundef 255) #10
  %26 = load ptr, ptr %3, align 8, !tbaa !24
  %27 = load ptr, ptr %5, align 8, !tbaa !4
  %28 = getelementptr inbounds nuw i8, ptr %0, i64 88
  %29 = load ptr, ptr %28, align 8, !tbaa !103
  %30 = tail call ptr @strrchr(ptr noundef nonnull dereferenceable(1) %29, i32 noundef 47) #12
  %31 = tail call i64 @avio_seek(ptr noundef %27, i64 noundef 0, i32 noundef 1) #10
  tail call void @avio_wb16(ptr noundef %27, i32 noundef 0) #10
  %.not.i = icmp eq ptr %30, null
  br i1 %.not.i, label %34, label %32

32:                                               ; preds = %25
  %33 = getelementptr inbounds nuw i8, ptr %30, i64 1
  br label %gxf_write_material_data_section.exit

34:                                               ; preds = %25
  %35 = load ptr, ptr %28, align 8, !tbaa !103
  br label %gxf_write_material_data_section.exit

gxf_write_material_data_section.exit:             ; preds = %32, %34
  %.0.i = phi ptr [ %33, %32 ], [ %35, %34 ]
  %36 = tail call i64 @strlen(ptr noundef nonnull dereferenceable(1) %.0.i) #12
  %37 = trunc i64 %36 to i32
  tail call void @avio_w8(ptr noundef %27, i32 noundef 64) #10
  %38 = add i32 %37, 18
  tail call void @avio_w8(ptr noundef %27, i32 noundef %38) #10
  tail call void @avio_write(ptr noundef %27, ptr noundef nonnull @.str.15, i32 noundef 17) #10
  tail call void @avio_write(ptr noundef %27, ptr noundef nonnull %.0.i, i32 noundef %37) #10
  tail call void @avio_w8(ptr noundef %27, i32 noundef 0) #10
  tail call void @avio_w8(ptr noundef %27, i32 noundef 65) #10
  tail call void @avio_w8(ptr noundef %27, i32 noundef 4) #10
  tail call void @avio_wb32(ptr noundef %27, i32 noundef 0) #10
  tail call void @avio_w8(ptr noundef %27, i32 noundef 66) #10
  tail call void @avio_w8(ptr noundef %27, i32 noundef 4) #10
  %39 = getelementptr inbounds nuw i8, ptr %26, i64 8
  %40 = load i32, ptr %39, align 8, !tbaa !88
  tail call void @avio_wb32(ptr noundef %27, i32 noundef %40) #10
  tail call void @avio_w8(ptr noundef %27, i32 noundef 67) #10
  tail call void @avio_w8(ptr noundef %27, i32 noundef 4) #10
  tail call void @avio_wb32(ptr noundef %27, i32 noundef 0) #10
  tail call void @avio_w8(ptr noundef %27, i32 noundef 68) #10
  tail call void @avio_w8(ptr noundef %27, i32 noundef 4) #10
  %41 = load i32, ptr %39, align 8, !tbaa !88
  tail call void @avio_wb32(ptr noundef %27, i32 noundef %41) #10
  tail call void @avio_w8(ptr noundef %27, i32 noundef 69) #10
  tail call void @avio_w8(ptr noundef %27, i32 noundef 4) #10
  %42 = tail call i64 @avio_size(ptr noundef %27) #10
  %43 = sdiv i64 %42, 1024
  %44 = trunc i64 %43 to i32
  tail call void @avio_wb32(ptr noundef %27, i32 noundef %44) #10
  %45 = tail call i64 @avio_seek(ptr noundef %27, i64 noundef 0, i32 noundef 1) #10
  %46 = tail call i64 @avio_seek(ptr noundef %27, i64 noundef %31, i32 noundef 0) #10
  %47 = sub nsw i64 %45, %31
  %48 = trunc i64 %47 to i32
  %49 = add i32 %48, -2
  tail call void @avio_wb16(ptr noundef %27, i32 noundef %49) #10
  %50 = tail call i64 @avio_seek(ptr noundef %27, i64 noundef %45, i32 noundef 0) #10
  %51 = load ptr, ptr %3, align 8, !tbaa !24
  %52 = load ptr, ptr %5, align 8, !tbaa !4
  %53 = tail call i64 @avio_seek(ptr noundef %52, i64 noundef 0, i32 noundef 1) #10
  tail call void @avio_wb16(ptr noundef %52, i32 noundef 0) #10
  %54 = getelementptr inbounds nuw i8, ptr %0, i64 44
  %55 = load i32, ptr %54, align 4, !tbaa !36
  %.not.i23 = icmp eq i32 %55, 0
  br i1 %.not.i23, label %gxf_write_track_description_section.exit, label %.lr.ph.i

.lr.ph.i:                                         ; preds = %gxf_write_material_data_section.exit
  %56 = getelementptr inbounds nuw i8, ptr %0, i64 48
  br label %57

57:                                               ; preds = %57, %.lr.ph.i
  %indvars.iv.i = phi i64 [ 0, %.lr.ph.i ], [ %indvars.iv.next.i, %57 ]
  %58 = load ptr, ptr %56, align 8, !tbaa !37
  %59 = getelementptr inbounds nuw ptr, ptr %58, i64 %indvars.iv.i
  %60 = load ptr, ptr %59, align 8, !tbaa !38
  %61 = getelementptr inbounds nuw i8, ptr %60, i64 24
  %62 = load ptr, ptr %61, align 8, !tbaa !40
  %63 = trunc nuw nsw i64 %indvars.iv.i to i32
  tail call fastcc void @gxf_write_track_description(ptr noundef nonnull readonly %0, ptr noundef %62, i32 noundef %63)
  %indvars.iv.next.i = add nuw nsw i64 %indvars.iv.i, 1
  %64 = load i32, ptr %54, align 4, !tbaa !36
  %65 = zext i32 %64 to i64
  %66 = icmp samesign ult i64 %indvars.iv.next.i, %65
  br i1 %66, label %57, label %gxf_write_track_description_section.exit, !llvm.loop !104

gxf_write_track_description_section.exit:         ; preds = %57, %gxf_write_material_data_section.exit
  %.lcssa.i = phi i32 [ 0, %gxf_write_material_data_section.exit ], [ %64, %57 ]
  %67 = getelementptr inbounds nuw i8, ptr %51, i64 56
  tail call fastcc void @gxf_write_track_description(ptr noundef nonnull readonly %0, ptr noundef nonnull %67, i32 noundef %.lcssa.i)
  %68 = tail call i64 @avio_seek(ptr noundef %52, i64 noundef 0, i32 noundef 1) #10
  %69 = tail call i64 @avio_seek(ptr noundef %52, i64 noundef %53, i32 noundef 0) #10
  %70 = sub nsw i64 %68, %53
  %71 = trunc i64 %70 to i32
  %72 = add i32 %71, -2
  tail call void @avio_wb16(ptr noundef %52, i32 noundef %72) #10
  %73 = tail call i64 @avio_seek(ptr noundef %52, i64 noundef %68, i32 noundef 0) #10
  %74 = tail call fastcc i64 @update_packet_size(ptr noundef %6, i64 noundef %7)
  %75 = trunc i64 %74 to i32
  br label %76

76:                                               ; preds = %18, %gxf_write_track_description_section.exit
  %.1 = phi i32 [ %75, %gxf_write_track_description_section.exit ], [ %16, %18 ]
  ret i32 %.1
}